; Function Attrs: nounwind uwtable
define hidden range(i32 0, 2) i32 @mbedtls_x509_time_is_future(ptr noundef readonly captures(none) %0) local_unnamed_addr #0 {
  %2 = alloca i64, align 8
  %3 = alloca %struct.tm, align 8
  %4 = tail call i64 @time(ptr noundef null) #13
  call void @llvm.lifetime.start.p0(i64 8, ptr nonnull %2)
  store i64 %4, ptr %2, align 8, !tbaa !16
  call void @llvm.lifetime.start.p0(i64 56, ptr nonnull %3) #13
  %5 = call ptr @mbedtls_platform_gmtime_r(ptr noundef nonnull %2, ptr noundef nonnull %3) #13
  %6 = icmp eq ptr %5, null
  br i1 %6, label %x509_get_current_time.exit, label %7

x509_get_current_time.exit:                       ; preds = %1
  call void @llvm.lifetime.end.p0(i64 56, ptr nonnull %3) #13
  call void @llvm.lifetime.end.p0(i64 8, ptr nonnull %2)
  br label %53

7:                                                ; preds = %1
  %8 = getelementptr inbounds nuw i8, ptr %3, i64 20
  %9 = load i32, ptr %8, align 4, !tbaa !42
  %10 = getelementptr inbounds nuw i8, ptr %3, i64 16
  %11 = load i32, ptr %10, align 8, !tbaa !44
  %12 = getelementptr inbounds nuw i8, ptr %3, i64 12
  %13 = load i32, ptr %12, align 4, !tbaa !45
  %14 = getelementptr inbounds nuw i8, ptr %3, i64 8
  %15 = load i32, ptr %14, align 8, !tbaa !46
  %16 = getelementptr inbounds nuw i8, ptr %3, i64 4
  %17 = load i32, ptr %16, align 4, !tbaa !47
  %18 = load i32, ptr %3, align 8, !tbaa !48
  call void @llvm.lifetime.end.p0(i64 56, ptr nonnull %3) #13
  call void @llvm.lifetime.end.p0(i64 8, ptr nonnull %2)
  %19 = load i32, ptr %0, align 4, !tbaa !21
  %20 = shl i32 %19, 9
  %21 = getelementptr inbounds nuw i8, ptr %0, i64 4
  %22 = load i32, ptr %21, align 4, !tbaa !23
  %23 = shl i32 %22, 5
  %24 = or i32 %23, %20
  %25 = getelementptr inbounds nuw i8, ptr %0, i64 8
  %26 = load i32, ptr %25, align 4, !tbaa !24
  %27 = or i32 %24, %26
  %28 = shl i32 %9, 9
  %29 = add i32 %28, 972800
  %30 = shl i32 %11, 5
  %31 = add i32 %30, 32
  %32 = or i32 %13, %29
  %33 = or i32 %32, %31
  %34 = sub nsw i32 %27, %33
  %.not.i = icmp eq i32 %34, 0
  br i1 %.not.i, label %35, label %mbedtls_x509_time_cmp.exit

35:                                               ; preds = %7
  %36 = getelementptr inbounds nuw i8, ptr %0, i64 12
  %37 = load i32, ptr %36, align 4, !tbaa !25
  %38 = shl i32 %37, 12
  %39 = getelementptr inbounds nuw i8, ptr %0, i64 16
  %40 = load i32, ptr %39, align 4, !tbaa !26
  %41 = shl i32 %40, 6
  %42 = or i32 %41, %38
  %43 = getelementptr inbounds nuw i8, ptr %0, i64 20
  %44 = load i32, ptr %43, align 4, !tbaa !27
  %45 = or i32 %42, %44
  %46 = shl i32 %15, 12
  %47 = shl i32 %17, 6
  %48 = or i32 %47, %46
  %49 = or i32 %48, %18
  %50 = sub nsw i32 %45, %49
  br label %mbedtls_x509_time_cmp.exit

mbedtls_x509_time_cmp.exit:                       ; preds = %7, %35
  %.0.i = phi i32 [ %50, %35 ], [ %34, %7 ]
  %51 = icmp sgt i32 %.0.i, 0
  %52 = zext i1 %51 to i32
  br label %53

53:                                               ; preds = %x509_get_current_time.exit, %mbedtls_x509_time_cmp.exit
  %.0 = phi i32 [ %52, %mbedtls_x509_time_cmp.exit ], [ 1, %x509_get_current_time.exit ]
  ret i32 %.0
}